; Function Attrs: mustprogress uwtable
define void @_ZN6icu_7515RBBIDataWrapper15removeReferenceEv(ptr noundef nonnull align 8 dereferenceable(137) %this) local_unnamed_addr #0 align 2 {
entry:
  %fRefCount = getelementptr inbounds i8, ptr %this, i64 56
  %0 = atomicrmw sub ptr %fRefCount, i32 1 seq_cst, align 4
  %cmp.not = icmp eq i32 %0, 1
  br i1 %cmp.not, label %delete.notnull, label %if.end

delete.notnull:                                   ; preds = %entry
  tail call void @_ZN6icu_7515RBBIDataWrapperD1Ev(ptr noundef nonnull align 8 dereferenceable(137) %this) #13
  tail call void @_ZN6icu_757UMemorydlEPv(ptr noundef nonnull %this) #13
  br label %if.end

if.end:                                           ; preds = %delete.notnull, %entry
  ret void
}